; Function Attrs: mustprogress uwtable
define hidden noundef zeroext i1 @_ZN6google8protobuf15UnknownFieldSet14ParseFromArrayEPKvi(ptr noundef nonnull align 8 dereferenceable(24) %0, ptr noundef %1, i32 noundef %2) local_unnamed_addr #3 align 2 personality ptr @__gxx_personality_v0 {
.noexc:
  %3 = alloca %"class.google::protobuf::io::CodedInputStream", align 8
  %4 = alloca %"class.google::protobuf::io::ArrayInputStream", align 8
  call void @llvm.lifetime.start.p0(i64 32, ptr nonnull %4) #17
  call void @_ZN6google8protobuf2io16ArrayInputStreamC1EPKvii(ptr noundef nonnull align 8 dereferenceable(32) %4, ptr noundef %1, i32 noundef %2, i32 noundef -1)
  call void @llvm.lifetime.start.p0(i64 80, ptr nonnull %3) #17
  %5 = getelementptr inbounds nuw i8, ptr %3, i64 16
  call void @llvm.memset.p0.i64(ptr noundef nonnull align 8 dereferenceable(80) %3, i8 0, i64 16, i1 false)
  store ptr %4, ptr %5, align 8, !tbaa !48
  %6 = getelementptr inbounds nuw i8, ptr %3, i64 24
  %7 = getelementptr inbounds nuw i8, ptr %3, i64 40
  call void @llvm.memset.p0.i64(ptr noundef nonnull align 8 dereferenceable(14) %6, i8 0, i64 14, i1 false)
  store i32 2147483647, ptr %7, align 8, !tbaa !49
  %8 = getelementptr inbounds nuw i8, ptr %3, i64 44
  store i32 0, ptr %8, align 4, !tbaa !50
  %9 = getelementptr inbounds nuw i8, ptr %3, i64 48
  store i32 2147483647, ptr %9, align 8, !tbaa !51
  %10 = getelementptr inbounds nuw i8, ptr %3, i64 52
  %11 = load i32, ptr @_ZN6google8protobuf2io16CodedInputStream24default_recursion_limit_E, align 4, !tbaa !28
  store i32 %11, ptr %10, align 4, !tbaa !52
  %12 = getelementptr inbounds nuw i8, ptr %3, i64 56
  store i32 %11, ptr %12, align 8, !tbaa !53
  %13 = getelementptr inbounds nuw i8, ptr %3, i64 64
  call void @llvm.memset.p0.i64(ptr noundef nonnull align 8 dereferenceable(16) %13, i8 0, i64 16, i1 false)
  %14 = call noundef zeroext i1 @_ZN6google8protobuf2io16CodedInputStream7RefreshEv(ptr noundef nonnull align 8 dereferenceable(80) %3)
  %15 = load ptr, ptr %0, align 8, !tbaa !23
  %16 = getelementptr inbounds nuw i8, ptr %0, i64 8
  %17 = load ptr, ptr %16, align 8, !tbaa !23
  %18 = icmp eq ptr %15, %17
  br i1 %18, label %_ZN6google8protobuf15UnknownFieldSet5ClearEv.exit.i.i, label %19

19:                                               ; preds = %.noexc
  call void @_ZN6google8protobuf15UnknownFieldSet13ClearFallbackEv(ptr noundef nonnull align 8 dereferenceable(24) %0)
  br label %_ZN6google8protobuf15UnknownFieldSet5ClearEv.exit.i.i

_ZN6google8protobuf15UnknownFieldSet5ClearEv.exit.i.i: ; preds = %19, %.noexc
  %20 = invoke noundef zeroext i1 @_ZN6google8protobuf15UnknownFieldSet20MergeFromCodedStreamEPNS0_2io16CodedInputStreamE(ptr noundef nonnull align 8 dereferenceable(24) %0, ptr noundef nonnull %3)
          to label %22 unwind label %.body

.body:                                            ; preds = %_ZN6google8protobuf15UnknownFieldSet5ClearEv.exit.i.i
  %21 = landingpad { ptr, i32 }
          cleanup
  call void @_ZN6google8protobuf2io16CodedInputStreamD1Ev(ptr noundef nonnull align 8 dereferenceable(80) %3) #17
  call void @llvm.lifetime.end.p0(i64 80, ptr nonnull %3) #17
  call void @llvm.lifetime.end.p0(i64 32, ptr nonnull %4) #17
  resume { ptr, i32 } %21

22:                                               ; preds = %_ZN6google8protobuf15UnknownFieldSet5ClearEv.exit.i.i
  %23 = getelementptr inbounds nuw i8, ptr %3, i64 36
  %24 = load i8, ptr %23, align 4, !range !46
  %25 = trunc nuw i8 %24 to i1
  %26 = select i1 %20, i1 %25, i1 false
  call void @_ZN6google8protobuf2io16CodedInputStreamD1Ev(ptr noundef nonnull align 8 dereferenceable(80) %3) #17
  call void @llvm.lifetime.end.p0(i64 80, ptr nonnull %3) #17
  call void @llvm.lifetime.end.p0(i64 32, ptr nonnull %4) #17
  ret i1 %26
}